; Function Attrs: nounwind uwtable
define hidden range(i32 -1, 1) i32 @_Py_Instrument(ptr noundef %0, ptr noundef readonly captures(none) %1) local_unnamed_addr #2 {
  %3 = load atomic i64, ptr %1 monotonic, align 8
  %4 = and i64 %3, 4294967295
  %5 = getelementptr inbounds nuw i8, ptr %0, i64 168
  %6 = load i64, ptr %5, align 8, !tbaa !75
  %7 = icmp eq i64 %6, %4
  br i1 %7, label %instrument_lock_held.exit, label %8

8:                                                ; preds = %2
  %9 = tail call fastcc i32 @force_instrument_lock_held(ptr noundef nonnull %0, ptr noundef nonnull readonly %1)
  br label %instrument_lock_held.exit

instrument_lock_held.exit:                        ; preds = %2, %8
  %.0.i = phi i32 [ %9, %8 ], [ 0, %2 ]
  ret i32 %.0.i
}